; Function Attrs: mustprogress uwtable
define hidden void @_ZN5osgeo4proj9operation21ConcatenatedOperationC2ERKSt6vectorIN7dropbox6oxygen2nnISt10shared_ptrINS1_19CoordinateOperationEEEESaISA_EE(ptr noundef nonnull align 8 dereferenceable(80) %0, ptr noundef nonnull align 8 dereferenceable(24) %1) unnamed_addr #4 align 2 personality ptr @__gxx_personality_v0 {
  tail call void @_ZN5osgeo4proj9operation19CoordinateOperationC2Ev(ptr noundef nonnull align 8 dereferenceable(72) %0)
  store ptr getelementptr inbounds inrange(-16, 80) ({ [12 x ptr], [5 x ptr], [5 x ptr], [5 x ptr], [5 x ptr] }, ptr @_ZTVN5osgeo4proj9operation21ConcatenatedOperationE, i64 0, i32 0, i64 2), ptr %0, align 8
  %3 = getelementptr inbounds i8, ptr %0, i64 16
  store ptr getelementptr inbounds inrange(-16, 24) ({ [12 x ptr], [5 x ptr], [5 x ptr], [5 x ptr], [5 x ptr] }, ptr @_ZTVN5osgeo4proj9operation21ConcatenatedOperationE, i64 0, i32 1, i64 2), ptr %3, align 8
  %4 = getelementptr inbounds i8, ptr %0, i64 24
  store ptr getelementptr inbounds inrange(-16, 24) ({ [12 x ptr], [5 x ptr], [5 x ptr], [5 x ptr], [5 x ptr] }, ptr @_ZTVN5osgeo4proj9operation21ConcatenatedOperationE, i64 0, i32 2, i64 2), ptr %4, align 8
  %5 = getelementptr inbounds i8, ptr %0, i64 48
  store ptr getelementptr inbounds inrange(-16, 24) ({ [12 x ptr], [5 x ptr], [5 x ptr], [5 x ptr], [5 x ptr] }, ptr @_ZTVN5osgeo4proj9operation21ConcatenatedOperationE, i64 0, i32 3, i64 2), ptr %5, align 8
  %6 = getelementptr inbounds i8, ptr %0, i64 56
  store ptr getelementptr inbounds inrange(-16, 24) ({ [12 x ptr], [5 x ptr], [5 x ptr], [5 x ptr], [5 x ptr] }, ptr @_ZTVN5osgeo4proj9operation21ConcatenatedOperationE, i64 0, i32 4, i64 2), ptr %6, align 8
  %7 = getelementptr inbounds i8, ptr %0, i64 72
  invoke void @_ZN5osgeo4proj8internal11make_uniqueINS0_9operation21ConcatenatedOperation7PrivateEJRKSt6vectorIN7dropbox6oxygen2nnISt10shared_ptrINS3_19CoordinateOperationEEEESaISD_EEEEESt10unique_ptrIT_St14default_deleteISJ_EEDpOT0_(ptr dead_on_unwind nonnull writable sret(%"class.std::unique_ptr.26") align 8 %7, ptr noundef nonnull align 8 dereferenceable(24) %1)
          to label %8 unwind label %9

8:                                                ; preds = %2
  ret void

9:                                                ; preds = %2
  %10 = landingpad { ptr, i32 }
          cleanup
  tail call void @_ZN5osgeo4proj9operation19CoordinateOperationD2Ev(ptr noundef nonnull align 8 dereferenceable(72) %0) #19
  resume { ptr, i32 } %10
}